(dp1
S'Trump'
p2
(lp3
S'{"created_at":"Sun Mar 27 00:55:36 +0000 2016","id":713892192868311041,"id_str":"713892192868311041","text":"In the interview, Trump propagates a world view that is the extreme logical extension of what many *wrongly* believe about Obama\'s. 1\\/","source":"\\u003ca href=\\"http:\\/\\/twitter.com\\" rel=\\"nofollow\\"\\u003eTwitter Web Client\\u003c\\/a\\u003e","truncated":false,"in_reply_to_status_id":null,"in_reply_to_status_id_str":null,"in_reply_to_user_id":null,"in_reply_to_user_id_str":null,"in_reply_to_screen_name":null,"user":{"id":44644109,"id_str":"44644109","name":"Jared M. Bruh","screen_name":"JMBruh","location":"(Photocred: Imaginary Fndtn)","url":null,"description":"Thoughts on Int. Security, US Politics, Emerging trends & technologies, & other fun things. #AspiringFuturist RT\'s R Usually Endorsements","protected":false,"verified":false,"followers_count":1759,"friends_count":2044,"listed_count":31,"favourites_count":14170,"statuses_count":13221,"created_at":"Thu Jun 04 15:45:19 +0000 2009","utc_offset":-18000,"time_zone":"Quito","geo_enabled":true,"lang":"en","contributors_enabled":false,"is_translator":false,"profile_background_color":"1A1B1F","profile_background_image_url":"http:\\/\\/pbs.twimg.com\\/profile_background_images\\/492368011135705088\\/lRQry4iG.jpeg","profile_background_image_url_https":"https:\\/\\/pbs.twimg.com\\/profile_background_images\\/492368011135705088\\/lRQry4iG.jpeg","profile_background_tile":false,"profile_link_color":"2FC2EF","profile_sidebar_border_color":"FFFFFF","profile_sidebar_fill_color":"99EBA5","profile_text_color":"0B1212","profile_use_background_image":true,"profile_image_url":"http:\\/\\/pbs.twimg.com\\/profile_images\\/688827661423112192\\/47q78mKm_normal.jpg","profile_image_url_https":"https:\\/\\/pbs.twimg.com\\/profile_images\\/688827661423112192\\/47q78mKm_normal.jpg","profile_banner_url":"https:\\/\\/pbs.twimg.com\\/profile_banners\\/44644109\\/1398463787","default_profile":false,"default_profile_image":false,"following":null,"follow_request_sent":null,"notifications":null},"geo":null,"coordinates":null,"place":{"id":"01a9a39529b27f36","url":"https:\\/\\/api.twitter.com\\/1.1\\/geo\\/id\\/01a9a39529b27f36.json","place_type":"city","name":"Manhattan","full_name":"Manhattan, NY","country_code":"US","country":"United States","bounding_box":{"type":"Polygon","coordinates":[[[-74.026675,40.683935],[-74.026675,40.877483],[-73.910408,40.877483],[-73.910408,40.683935]]]},"attributes":{}},"contributors":null,"is_quote_status":false,"retweet_count":0,"favorite_count":0,"entities":{"hashtags":[],"urls":[],"user_mentions":[],"symbols":[]},"favorited":false,"retweeted":false,"filter_level":"low","lang":"en","timestamp_ms":"1459040136912"}\n'
p4
asS'Donald'
p5
(lp6
S'{"created_at":"Sat Feb 20 16:31:55 +0000 2016","id":701081859279683585,"id_str":"701081859279683585","text":"@FoxNews the new Rubio Network. For Fair &amp; Balanced - thank you to @JoeNBC @morningmika @Morning_Joe  https:\\/\\/t.co\\/o8Q51aMn6a","source":"\\u003ca href=\\"http:\\/\\/twitter.com\\/download\\/iphone\\" rel=\\"nofollow\\"\\u003eTwitter for iPhone\\u003c\\/a\\u003e","truncated":false,"in_reply_to_status_id":null,"in_reply_to_status_id_str":null,"in_reply_to_user_id":1367531,"in_reply_to_user_id_str":"1367531","in_reply_to_screen_name":"FoxNews","user":{"id":108062489,"id_str":"108062489","name":"Linda","screen_name":"mrsjfbj","location":"Lyndhurst, NJ","url":null,"description":null,"protected":false,"verified":false,"followers_count":142,"friends_count":544,"listed_count":5,"favourites_count":3337,"statuses_count":850,"created_at":"Sun Jan 24 18:20:32 +0000 2010","utc_offset":null,"time_zone":null,"geo_enabled":true,"lang":"en","contributors_enabled":false,"is_translator":false,"profile_background_color":"C0DEED","profile_background_image_url":"http:\\/\\/abs.twimg.com\\/images\\/themes\\/theme1\\/bg.png","profile_background_image_url_https":"https:\\/\\/abs.twimg.com\\/images\\/themes\\/theme1\\/bg.png","profile_background_tile":false,"profile_link_color":"0084B4","profile_sidebar_border_color":"C0DEED","profile_sidebar_fill_color":"DDEEF6","profile_text_color":"333333","profile_use_background_image":true,"profile_image_url":"http:\\/\\/pbs.twimg.com\\/profile_images\\/700311704840888320\\/pwHR9qXh_normal.jpg","profile_image_url_https":"https:\\/\\/pbs.twimg.com\\/profile_images\\/700311704840888320\\/pwHR9qXh_normal.jpg","default_profile":true,"default_profile_image":false,"following":null,"follow_request_sent":null,"notifications":null},"geo":null,"coordinates":null,"place":{"id":"3d3c56338b6a3b4a","url":"https:\\/\\/api.twitter.com\\/1.1\\/geo\\/id\\/3d3c56338b6a3b4a.json","place_type":"city","name":"Bayonne","full_name":"Bayonne, NJ","country_code":"US","country":"United States","bounding_box":{"type":"Polygon","coordinates":[[[-74.146932,40.643773],[-74.146932,40.697794],[-74.065800,40.697794],[-74.065800,40.643773]]]},"attributes":{}},"contributors":null,"quoted_status_id":701044871587454976,"quoted_status_id_str":"701044871587454976","quoted_status":{"created_at":"Sat Feb 20 14:04:56 +0000 2016","id":701044871587454976,"id_str":"701044871587454976","text":"\\"@FamilyRedsFans: @FoxNews is really starting to campaign hard for marcorubio. #fairandbalancedmyass\\"  He is weak on illegal immigration!","source":"\\u003ca href=\\"http:\\/\\/twitter.com\\/download\\/android\\" rel=\\"nofollow\\"\\u003eTwitter for Android\\u003c\\/a\\u003e","truncated":false,"in_reply_to_status_id":null,"in_reply_to_status_id_str":null,"in_reply_to_user_id":null,"in_reply_to_user_id_str":null,"in_reply_to_screen_name":null,"user":{"id":25073877,"id_str":"25073877","name":"Donald J. Trump","screen_name":"realDonaldTrump","location":"New York, NY","url":"http:\\/\\/www.donaldjtrump.com","description":"#MakeAmericaGreatAgain #Trump2016 #Facebook: http:\\/\\/www.facebook.com\\/DonaldTrump #Instagram: https:\\/\\/www.instagram.com\\/realdonaldtrump\\/","protected":false,"verified":true,"followers_count":6258110,"friends_count":48,"listed_count":29940,"favourites_count":64,"statuses_count":30881,"created_at":"Wed Mar 18 13:46:38 +0000 2009","utc_offset":-18000,"time_zone":"Eastern Time (US & Canada)","geo_enabled":true,"lang":"en","contributors_enabled":false,"is_translator":false,"profile_background_color":"6D5C18","profile_background_image_url":"http:\\/\\/pbs.twimg.com\\/profile_background_images\\/530021613\\/trump_scotland__43_of_70_cc.jpg","profile_background_image_url_https":"https:\\/\\/pbs.twimg.com\\/profile_background_images\\/530021613\\/trump_scotland__43_of_70_cc.jpg","profile_background_tile":true,"profile_link_color":"0D5B73","profile_sidebar_border_color":"BDDCAD","profile_sidebar_fill_color":"C5CEC0","profile_text_color":"333333","profile_use_background_image":true,"profile_image_url":"http:\\/\\/pbs.twimg.com\\/profile_images\\/1980294624\\/DJT_Headshot_V2_normal.jpg","profile_image_url_https":"https:\\/\\/pbs.twimg.com\\/profile_images\\/1980294624\\/DJT_Headshot_V2_normal.jpg","profile_banner_url":"https:\\/\\/pbs.twimg.com\\/profile_banners\\/25073877\\/1455288846","default_profile":false,"default_profile_image":false,"following":null,"follow_request_sent":null,"notifications":null},"geo":null,"coordinates":null,"place":null,"contributors":null,"is_quote_status":false,"retweet_count":0,"favorite_count":0,"entities":{"hashtags":[{"text":"fairandbalancedmyass","indices":[79,100]}],"urls":[],"user_mentions":[{"screen_name":"FamilyRedsFans","name":"Gerry McCarter","id":306574665,"id_str":"306574665","indices":[1,16]},{"screen_name":"FoxNews","name":"Fox News","id":1367531,"id_str":"1367531","indices":[18,26]}],"symbols":[]},"favorited":false,"retweeted":false,"filter_level":"low","lang":"en"},"is_quote_status":true,"retweet_count":0,"favorite_count":0,"entities":{"hashtags":[],"urls":[{"url":"https:\\/\\/t.co\\/o8Q51aMn6a","expanded_url":"https:\\/\\/twitter.com\\/realdonaldtrump\\/status\\/701044871587454976","display_url":"twitter.com\\/realdonaldtrum\\u2026","indices":[106,129]}],"user_mentions":[{"screen_name":"FoxNews","name":"Fox News","id":1367531,"id_str":"1367531","indices":[0,8]},{"screen_name":"JoeNBC","name":"Joe Scarborough","id":21619519,"id_str":"21619519","indices":[71,78]},{"screen_name":"morningmika","name":"Mika Brzezinski","id":18227519,"id_str":"18227519","indices":[79,91]},{"screen_name":"Morning_Joe","name":"Morning Joe","id":254117355,"id_str":"254117355","indices":[92,104]}],"symbols":[]},"favorited":false,"retweeted":false,"possibly_sensitive":false,"filter_level":"low","lang":"en","timestamp_ms":"1455985915380"}\n'
p7
aS'{"created_at":"Sun Mar 27 00:55:31 +0000 2016","id":713892170361610241,"id_str":"713892170361610241","text":"@realDonaldTrump stfu","source":"\\u003ca href=\\"http:\\/\\/twitter.com\\/download\\/iphone\\" rel=\\"nofollow\\"\\u003eTwitter for iPhone\\u003c\\/a\\u003e","truncated":false,"in_reply_to_status_id":713821835402616833,"in_reply_to_status_id_str":"713821835402616833","in_reply_to_user_id":25073877,"in_reply_to_user_id_str":"25073877","in_reply_to_screen_name":"realDonaldTrump","user":{"id":2859547239,"id_str":"2859547239","name":"six goddess \\u2728","screen_name":"ovonene","location":"NY","url":null,"description":"but you aint drake tho. 4\\/20","protected":false,"verified":false,"followers_count":215,"friends_count":339,"listed_count":1,"favourites_count":902,"statuses_count":6069,"created_at":"Mon Nov 03 21:34:34 +0000 2014","utc_offset":-14400,"time_zone":"Eastern Time (US & Canada)","geo_enabled":true,"lang":"en","contributors_enabled":false,"is_translator":false,"profile_background_color":"C0DEED","profile_background_image_url":"http:\\/\\/abs.twimg.com\\/images\\/themes\\/theme1\\/bg.png","profile_background_image_url_https":"https:\\/\\/abs.twimg.com\\/images\\/themes\\/theme1\\/bg.png","profile_background_tile":false,"profile_link_color":"0084B4","profile_sidebar_border_color":"C0DEED","profile_sidebar_fill_color":"DDEEF6","profile_text_color":"333333","profile_use_background_image":true,"profile_image_url":"http:\\/\\/pbs.twimg.com\\/profile_images\\/712834694568681473\\/DqH5bveI_normal.jpg","profile_image_url_https":"https:\\/\\/pbs.twimg.com\\/profile_images\\/712834694568681473\\/DqH5bveI_normal.jpg","profile_banner_url":"https:\\/\\/pbs.twimg.com\\/profile_banners\\/2859547239\\/1456541837","default_profile":true,"default_profile_image":false,"following":null,"follow_request_sent":null,"notifications":null},"geo":null,"coordinates":null,"place":{"id":"94965b2c45386f87","url":"https:\\/\\/api.twitter.com\\/1.1\\/geo\\/id\\/94965b2c45386f87.json","place_type":"admin","name":"New York","full_name":"New York, USA","country_code":"US","country":"United States","bounding_box":{"type":"Polygon","coordinates":[[[-79.762590,40.477383],[-79.762590,45.015851],[-71.777492,45.015851],[-71.777492,40.477383]]]},"attributes":{}},"contributors":null,"is_quote_status":false,"retweet_count":0,"favorite_count":0,"entities":{"hashtags":[],"urls":[],"user_mentions":[{"screen_name":"realDonaldTrump","name":"Donald J. Trump","id":25073877,"id_str":"25073877","indices":[0,16]}],"symbols":[]},"favorited":false,"retweeted":false,"filter_level":"low","lang":"en","timestamp_ms":"1459040131546"}\n'
p8
aS'{"created_at":"Sun Mar 27 00:55:36 +0000 2016","id":713892191509176320,"id_str":"713892191509176320","text":"@Boringstein I know you shaved but your face is airbrushed here","source":"\\u003ca href=\\"http:\\/\\/twitter.com\\/download\\/iphone\\" rel=\\"nofollow\\"\\u003eTwitter for iPhone\\u003c\\/a\\u003e","truncated":false,"in_reply_to_status_id":713521817344933892,"in_reply_to_status_id_str":"713521817344933892","in_reply_to_user_id":24469899,"in_reply_to_user_id_str":"24469899","in_reply_to_screen_name":"Boringstein","user":{"id":166821454,"id_str":"166821454","name":"David Walsh","screen_name":"RollerNova","location":"Staten Island","url":null,"description":"I am Dave","protected":false,"verified":false,"followers_count":94,"friends_count":230,"listed_count":1,"favourites_count":897,"statuses_count":1415,"created_at":"Thu Jul 15 02:27:25 +0000 2010","utc_offset":-10800,"time_zone":"Atlantic Time (Canada)","geo_enabled":true,"lang":"en","contributors_enabled":false,"is_translator":false,"profile_background_color":"C0DEED","profile_background_image_url":"http:\\/\\/pbs.twimg.com\\/profile_background_images\\/123296870\\/TITUS_3.jpg","profile_background_image_url_https":"https:\\/\\/pbs.twimg.com\\/profile_background_images\\/123296870\\/TITUS_3.jpg","profile_background_tile":true,"profile_link_color":"0084B4","profile_sidebar_border_color":"C0DEED","profile_sidebar_fill_color":"DDEEF6","profile_text_color":"333333","profile_use_background_image":true,"profile_image_url":"http:\\/\\/pbs.twimg.com\\/profile_images\\/1078723842\\/TITUS_normal.jpg","profile_image_url_https":"https:\\/\\/pbs.twimg.com\\/profile_images\\/1078723842\\/TITUS_normal.jpg","default_profile":false,"default_profile_image":false,"following":null,"follow_request_sent":null,"notifications":null},"geo":null,"coordinates":null,"place":{"id":"00c55f041e27dc51","url":"https:\\/\\/api.twitter.com\\/1.1\\/geo\\/id\\/00c55f041e27dc51.json","place_type":"city","name":"Staten Island","full_name":"Staten Island, NY","country_code":"US","country":"United States","bounding_box":{"type":"Polygon","coordinates":[[[-74.255641,40.495865],[-74.255641,40.648887],[-74.052253,40.648887],[-74.052253,40.495865]]]},"attributes":{}},"contributors":null,"is_quote_status":false,"retweet_count":0,"favorite_count":0,"entities":{"hashtags":[],"urls":[],"user_mentions":[{"screen_name":"Boringstein","name":"Donald!","id":24469899,"id_str":"24469899","indices":[0,12]}],"symbols":[]},"favorited":false,"retweeted":false,"filter_level":"low","lang":"en","timestamp_ms":"1459040136588"}\n'
p9
asS'Rubio'
p10
(lp11
g7
asS'Bernie'
p12
(lp13
S'{"created_at":"Sat Feb 20 16:32:11 +0000 2016","id":701081926548004864,"id_str":"701081926548004864","text":"@TheNewDeal @Milmore @dailykos has nothing to do with Bernie being more likeable, has to do with fact she is hated more than anyone","source":"\\u003ca href=\\"http:\\/\\/twitter.com\\/download\\/android\\" rel=\\"nofollow\\"\\u003eTwitter for Android\\u003c\\/a\\u003e","truncated":false,"in_reply_to_status_id":701079528186236928,"in_reply_to_status_id_str":"701079528186236928","in_reply_to_user_id":78569026,"in_reply_to_user_id_str":"78569026","in_reply_to_screen_name":"TheNewDeal","user":{"id":1439872832,"id_str":"1439872832","name":"Keith","screen_name":"Coronakeith","location":"Brooklyn, NY via RockawayBeach","url":null,"description":"Let\'s go Mets!\\nChi Chi Chi le le le !","protected":false,"verified":false,"followers_count":94,"friends_count":128,"listed_count":6,"favourites_count":1488,"statuses_count":4998,"created_at":"Sun May 19 01:16:29 +0000 2013","utc_offset":-14400,"time_zone":"Atlantic Time (Canada)","geo_enabled":true,"lang":"en","contributors_enabled":false,"is_translator":false,"profile_background_color":"C0DEED","profile_background_image_url":"http:\\/\\/abs.twimg.com\\/images\\/themes\\/theme1\\/bg.png","profile_background_image_url_https":"https:\\/\\/abs.twimg.com\\/images\\/themes\\/theme1\\/bg.png","profile_background_tile":false,"profile_link_color":"0084B4","profile_sidebar_border_color":"C0DEED","profile_sidebar_fill_color":"DDEEF6","profile_text_color":"333333","profile_use_background_image":true,"profile_image_url":"http:\\/\\/pbs.twimg.com\\/profile_images\\/378800000030998480\\/883a57ac028576579487c2ab096c96ec_normal.jpeg","profile_image_url_https":"https:\\/\\/pbs.twimg.com\\/profile_images\\/378800000030998480\\/883a57ac028576579487c2ab096c96ec_normal.jpeg","profile_banner_url":"https:\\/\\/pbs.twimg.com\\/profile_banners\\/1439872832\\/1368927980","default_profile":true,"default_profile_image":false,"following":null,"follow_request_sent":null,"notifications":null},"geo":null,"coordinates":null,"place":{"id":"011add077f4d2da3","url":"https:\\/\\/api.twitter.com\\/1.1\\/geo\\/id\\/011add077f4d2da3.json","place_type":"city","name":"Brooklyn","full_name":"Brooklyn, NY","country_code":"US","country":"United States","bounding_box":{"type":"Polygon","coordinates":[[[-74.041878,40.570842],[-74.041878,40.739434],[-73.855673,40.739434],[-73.855673,40.570842]]]},"attributes":{}},"contributors":null,"is_quote_status":false,"retweet_count":0,"favorite_count":0,"entities":{"hashtags":[],"urls":[],"user_mentions":[{"screen_name":"TheNewDeal","name":"TheNewDeal","id":78569026,"id_str":"78569026","indices":[0,11]},{"screen_name":"Milmore","name":"Milmore","id":20569419,"id_str":"20569419","indices":[12,20]},{"screen_name":"dailykos","name":"Daily Kos","id":20818801,"id_str":"20818801","indices":[21,30]}],"symbols":[]},"favorited":false,"retweeted":false,"filter_level":"low","lang":"en","timestamp_ms":"1455985931418"}\n'
p14
as.